; ModuleID = '32/1427.c'
source_filename = "32/1427.c"
target datalayout = "e-m:e-p270:32:32-p271:32:32-p272:64:64-i64:64-f80:128-n8:16:32:64-S128"
target triple = "x86_64-pc-linux-gnu"

@.str = private unnamed_addr constant [3 x i8] c"%d\00", align 1
@.str.1 = private unnamed_addr constant [2 x i8] c"\0A\00", align 1
@.str.2 = private unnamed_addr constant [3 x i8] c"%c\00", align 1

; Function Attrs: noinline nounwind uwtable
define dso_local i32 @main() #0 {
  %1 = alloca i32, align 4
  %2 = alloca i32, align 4
  %3 = alloca i32, align 4
  %4 = alloca i32, align 4
  %5 = alloca i32, align 4
  %6 = alloca i32, align 4
  %7 = alloca i32, align 4
  %8 = alloca [100 x i8], align 16
  %9 = alloca [100 x i8], align 16
  %10 = alloca [100 x i8], align 16
  store i32 0, i32* %1, align 4
  %11 = call i32 (i8*, ...) @__isoc99_scanf(i8* getelementptr inbounds ([3 x i8], [3 x i8]* @.str, i64 0, i64 0), i32* %2)
  %12 = call i32 (i8*, ...) @__isoc99_scanf(i8* getelementptr inbounds ([2 x i8], [2 x i8]* @.str.1, i64 0, i64 0))
  store i32 0, i32* %3, align 4
  br label %13

13:                                               ; preds = %20, %0
  %14 = load i32, i32* %3, align 4
  %15 = icmp sle i32 %14, 99
  br i1 %15, label %16, label %23

16:                                               ; preds = %13
  %17 = load i32, i32* %3, align 4
  %18 = sext i32 %17 to i64
  %19 = getelementptr inbounds [100 x i8], [100 x i8]* %8, i64 0, i64 %18
  store i8 0, i8* %19, align 1
  br label %20

20:                                               ; preds = %16
  %21 = load i32, i32* %3, align 4
  %22 = add nsw i32 %21, 1
  store i32 %22, i32* %3, align 4
  br label %13

23:                                               ; preds = %13
  store i32 0, i32* %3, align 4
  br label %24

24:                                               ; preds = %31, %23
  %25 = load i32, i32* %3, align 4
  %26 = icmp sle i32 %25, 99
  br i1 %26, label %27, label %34

27:                                               ; preds = %24
  %28 = load i32, i32* %3, align 4
  %29 = sext i32 %28 to i64
  %30 = getelementptr inbounds [100 x i8], [100 x i8]* %9, i64 0, i64 %29
  store i8 0, i8* %30, align 1
  br label %31

31:                                               ; preds = %27
  %32 = load i32, i32* %3, align 4
  %33 = add nsw i32 %32, 1
  store i32 %33, i32* %3, align 4
  br label %24

34:                                               ; preds = %24
  store i32 1, i32* %3, align 4
  br label %35

35:                                               ; preds = %174, %34
  %36 = load i32, i32* %3, align 4
  %37 = load i32, i32* %2, align 4
  %38 = icmp sle i32 %36, %37
  br i1 %38, label %39, label %177

39:                                               ; preds = %35
  %40 = getelementptr inbounds [100 x i8], [100 x i8]* %8, i64 0, i64 0
  %41 = call i32 (i8*, ...) bitcast (i32 (...)* @gets to i32 (i8*, ...)*)(i8* %40)
  %42 = getelementptr inbounds [100 x i8], [100 x i8]* %9, i64 0, i64 0
  %43 = call i32 (i8*, ...) bitcast (i32 (...)* @gets to i32 (i8*, ...)*)(i8* %42)
  %44 = call i32 (i8*, ...) @__isoc99_scanf(i8* getelementptr inbounds ([2 x i8], [2 x i8]* @.str.1, i64 0, i64 0))
  %45 = getelementptr inbounds [100 x i8], [100 x i8]* %8, i64 0, i64 0
  %46 = call i64 @strlen(i8* %45) #3
  %47 = trunc i64 %46 to i32
  store i32 %47, i32* %4, align 4
  %48 = getelementptr inbounds [100 x i8], [100 x i8]* %9, i64 0, i64 0
  %49 = call i64 @strlen(i8* %48) #3
  %50 = trunc i64 %49 to i32
  store i32 %50, i32* %5, align 4
  store i32 1, i32* %6, align 4
  br label %51

51:                                               ; preds = %134, %39
  %52 = load i32, i32* %6, align 4
  %53 = load i32, i32* %5, align 4
  %54 = icmp sle i32 %52, %53
  br i1 %54, label %55, label %137

55:                                               ; preds = %51
  %56 = load i32, i32* %4, align 4
  %57 = load i32, i32* %6, align 4
  %58 = sub nsw i32 %56, %57
  %59 = sext i32 %58 to i64
  %60 = getelementptr inbounds [100 x i8], [100 x i8]* %8, i64 0, i64 %59
  %61 = load i8, i8* %60, align 1
  %62 = sext i8 %61 to i32
  %63 = load i32, i32* %5, align 4
  %64 = load i32, i32* %6, align 4
  %65 = sub nsw i32 %63, %64
  %66 = sext i32 %65 to i64
  %67 = getelementptr inbounds [100 x i8], [100 x i8]* %9, i64 0, i64 %66
  %68 = load i8, i8* %67, align 1
  %69 = sext i8 %68 to i32
  %70 = icmp sge i32 %62, %69
  br i1 %70, label %71, label %94

71:                                               ; preds = %55
  %72 = load i32, i32* %4, align 4
  %73 = load i32, i32* %6, align 4
  %74 = sub nsw i32 %72, %73
  %75 = sext i32 %74 to i64
  %76 = getelementptr inbounds [100 x i8], [100 x i8]* %8, i64 0, i64 %75
  %77 = load i8, i8* %76, align 1
  %78 = sext i8 %77 to i32
  %79 = load i32, i32* %5, align 4
  %80 = load i32, i32* %6, align 4
  %81 = sub nsw i32 %79, %80
  %82 = sext i32 %81 to i64
  %83 = getelementptr inbounds [100 x i8], [100 x i8]* %9, i64 0, i64 %82
  %84 = load i8, i8* %83, align 1
  %85 = sext i8 %84 to i32
  %86 = sub nsw i32 %78, %85
  %87 = add nsw i32 %86, 48
  %88 = trunc i32 %87 to i8
  %89 = load i32, i32* %4, align 4
  %90 = load i32, i32* %6, align 4
  %91 = sub nsw i32 %89, %90
  %92 = sext i32 %91 to i64
  %93 = getelementptr inbounds [100 x i8], [100 x i8]* %10, i64 0, i64 %92
  store i8 %88, i8* %93, align 1
  br label %133

94:                                               ; preds = %55
  %95 = load i32, i32* %4, align 4
  %96 = load i32, i32* %6, align 4
  %97 = sub nsw i32 %95, %96
  %98 = sext i32 %97 to i64
  %99 = getelementptr inbounds [100 x i8], [100 x i8]* %8, i64 0, i64 %98
  %100 = load i8, i8* %99, align 1
  %101 = sext i8 %100 to i32
  %102 = add nsw i32 %101, 58
  %103 = load i32, i32* %5, align 4
  %104 = load i32, i32* %6, align 4
  %105 = sub nsw i32 %103, %104
  %106 = sext i32 %105 to i64
  %107 = getelementptr inbounds [100 x i8], [100 x i8]* %9, i64 0, i64 %106
  %108 = load i8, i8* %107, align 1
  %109 = sext i8 %108 to i32
  %110 = sub nsw i32 %102, %109
  %111 = trunc i32 %110 to i8
  %112 = load i32, i32* %4, align 4
  %113 = load i32, i32* %6, align 4
  %114 = sub nsw i32 %112, %113
  %115 = sext i32 %114 to i64
  %116 = getelementptr inbounds [100 x i8], [100 x i8]* %10, i64 0, i64 %115
  store i8 %111, i8* %116, align 1
  %117 = load i32, i32* %4, align 4
  %118 = load i32, i32* %6, align 4
  %119 = sub nsw i32 %117, %118
  %120 = sub nsw i32 %119, 1
  %121 = sext i32 %120 to i64
  %122 = getelementptr inbounds [100 x i8], [100 x i8]* %8, i64 0, i64 %121
  %123 = load i8, i8* %122, align 1
  %124 = sext i8 %123 to i32
  %125 = sub nsw i32 %124, 1
  %126 = trunc i32 %125 to i8
  %127 = load i32, i32* %4, align 4
  %128 = load i32, i32* %6, align 4
  %129 = sub nsw i32 %127, %128
  %130 = sub nsw i32 %129, 1
  %131 = sext i32 %130 to i64
  %132 = getelementptr inbounds [100 x i8], [100 x i8]* %8, i64 0, i64 %131
  store i8 %126, i8* %132, align 1
  br label %133

133:                                              ; preds = %94, %71
  br label %134

134:                                              ; preds = %133
  %135 = load i32, i32* %6, align 4
  %136 = add nsw i32 %135, 1
  store i32 %136, i32* %6, align 4
  br label %51

137:                                              ; preds = %51
  store i32 0, i32* %6, align 4
  br label %138

138:                                              ; preds = %153, %137
  %139 = load i32, i32* %6, align 4
  %140 = load i32, i32* %4, align 4
  %141 = load i32, i32* %5, align 4
  %142 = sub nsw i32 %140, %141
  %143 = sub nsw i32 %142, 1
  %144 = icmp sle i32 %139, %143
  br i1 %144, label %145, label %156

145:                                              ; preds = %138
  %146 = load i32, i32* %6, align 4
  %147 = sext i32 %146 to i64
  %148 = getelementptr inbounds [100 x i8], [100 x i8]* %8, i64 0, i64 %147
  %149 = load i8, i8* %148, align 1
  %150 = load i32, i32* %6, align 4
  %151 = sext i32 %150 to i64
  %152 = getelementptr inbounds [100 x i8], [100 x i8]* %10, i64 0, i64 %151
  store i8 %149, i8* %152, align 1
  br label %153

153:                                              ; preds = %145
  %154 = load i32, i32* %6, align 4
  %155 = add nsw i32 %154, 1
  store i32 %155, i32* %6, align 4
  br label %138

156:                                              ; preds = %138
  store i32 0, i32* %7, align 4
  br label %157

157:                                              ; preds = %169, %156
  %158 = load i32, i32* %7, align 4
  %159 = load i32, i32* %4, align 4
  %160 = sub nsw i32 %159, 1
  %161 = icmp sle i32 %158, %160
  br i1 %161, label %162, label %172

162:                                              ; preds = %157
  %163 = load i32, i32* %7, align 4
  %164 = sext i32 %163 to i64
  %165 = getelementptr inbounds [100 x i8], [100 x i8]* %10, i64 0, i64 %164
  %166 = load i8, i8* %165, align 1
  %167 = sext i8 %166 to i32
  %168 = call i32 (i8*, ...) @printf(i8* getelementptr inbounds ([3 x i8], [3 x i8]* @.str.2, i64 0, i64 0), i32 %167)
  br label %169

169:                                              ; preds = %162
  %170 = load i32, i32* %7, align 4
  %171 = add nsw i32 %170, 1
  store i32 %171, i32* %7, align 4
  br label %157

172:                                              ; preds = %157
  %173 = call i32 (i8*, ...) @printf(i8* getelementptr inbounds ([2 x i8], [2 x i8]* @.str.1, i64 0, i64 0))
  br label %174

174:                                              ; preds = %172
  %175 = load i32, i32* %3, align 4
  %176 = add nsw i32 %175, 1
  store i32 %176, i32* %3, align 4
  br label %35

177:                                              ; preds = %35
  ret i32 0
}

declare dso_local i32 @__isoc99_scanf(i8*, ...) #1

declare dso_local i32 @gets(...) #1

; Function Attrs: nounwind readonly
declare dso_local i64 @strlen(i8*) #2

declare dso_local i32 @printf(i8*, ...) #1


!llvm.module.flags = !{!0}
!llvm.ident = !{!1}

!0 = !{i32 1, !"wchar_size", i32 4}
!1 = !{!"clang version 10.0.0-4ubuntu1 "}
