; ModuleID = 'source-C-CXX/31/1427.c'
source_filename = "source-C-CXX/31/1427.c"
target datalayout = "e-m:e-p270:32:32-p271:32:32-p272:64:64-i64:64-f80:128-n8:16:32:64-S128"
target triple = "x86_64-pc-linux-gnu"

@.str = private unnamed_addr constant [3 x i8] c"%d\00", align 1
@.str.1 = private unnamed_addr constant [2 x i8] c"\0A\00", align 1

; Function Attrs: nounwind sspstrong uwtable
define dso_local i32 @main() local_unnamed_addr #0 {
  %1 = alloca i32, align 4
  %2 = alloca [100 x i8], align 16
  %3 = getelementptr inbounds [100 x i8], [100 x i8]* %2, i64 0, i64 0
  %4 = alloca [100 x i8], align 16
  %5 = getelementptr inbounds [100 x i8], [100 x i8]* %4, i64 0, i64 0
  %6 = alloca [100 x i8], align 16
  %7 = getelementptr inbounds [100 x i8], [100 x i8]* %6, i64 0, i64 0
  %8 = bitcast i32* %1 to i8*
  call void @llvm.lifetime.start.p0i8(i64 4, i8* nonnull %8) #8
  %9 = call i32 (i8*, ...) @__isoc99_scanf(i8* getelementptr inbounds ([3 x i8], [3 x i8]* @.str, i64 0, i64 0), i32* nonnull %1)
  %10 = call i32 (i8*, ...) @__isoc99_scanf(i8* getelementptr inbounds ([2 x i8], [2 x i8]* @.str.1, i64 0, i64 0))
  %11 = getelementptr inbounds [100 x i8], [100 x i8]* %2, i64 0, i64 0
  call void @llvm.lifetime.start.p0i8(i64 100, i8* nonnull %11) #8
  %12 = getelementptr inbounds [100 x i8], [100 x i8]* %4, i64 0, i64 0
  call void @llvm.lifetime.start.p0i8(i64 100, i8* nonnull %12) #8
  %13 = getelementptr inbounds [100 x i8], [100 x i8]* %6, i64 0, i64 0
  call void @llvm.lifetime.start.p0i8(i64 100, i8* nonnull %13) #8
  call void @llvm.memset.p0i8.i64(i8* noundef nonnull align 16 dereferenceable(100) %3, i8 0, i64 100, i1 false)
  call void @llvm.memset.p0i8.i64(i8* noundef nonnull align 16 dereferenceable(100) %5, i8 0, i64 100, i1 false)
  %14 = load i32, i32* %1, align 4, !tbaa !5
  %15 = icmp slt i32 %14, 1
  br i1 %15, label %80, label %16

16:                                               ; preds = %0, %75
  %17 = phi i32 [ %77, %75 ], [ 1, %0 ]
  %18 = call i32 (i8*, ...) bitcast (i32 (...)* @gets to i32 (i8*, ...)*)(i8* nonnull %11) #8
  %19 = call i32 (i8*, ...) bitcast (i32 (...)* @gets to i32 (i8*, ...)*)(i8* nonnull %12) #8
  %20 = call i32 (i8*, ...) @__isoc99_scanf(i8* getelementptr inbounds ([2 x i8], [2 x i8]* @.str.1, i64 0, i64 0))
  %21 = call i64 @strlen(i8* noundef nonnull %11) #9
  %22 = trunc i64 %21 to i32
  %23 = call i64 @strlen(i8* noundef nonnull %12) #9
  %24 = trunc i64 %23 to i32
  %25 = icmp slt i32 %24, 1
  br i1 %25, label %33, label %26

26:                                               ; preds = %16
  %27 = shl i64 %21, 32
  %28 = ashr exact i64 %27, 32
  %29 = shl i64 %23, 32
  %30 = ashr exact i64 %29, 32
  %31 = add i64 %23, 1
  %32 = and i64 %31, 4294967295
  br label %40

33:                                               ; preds = %57, %16
  %34 = xor i32 %24, -1
  %35 = add i32 %34, %22
  %36 = icmp slt i32 %35, 0
  br i1 %36, label %63, label %37

37:                                               ; preds = %33
  %38 = sub i64 %21, %23
  %39 = and i64 %38, 4294967295
  call void @llvm.memcpy.p0i8.p0i8.i64(i8* nonnull align 16 %7, i8* nonnull align 16 %3, i64 %39, i1 false)
  br label %63

40:                                               ; preds = %26, %57
  %41 = phi i64 [ 1, %26 ], [ %61, %57 ]
  %42 = sub nsw i64 %28, %41
  %43 = getelementptr inbounds [100 x i8], [100 x i8]* %2, i64 0, i64 %42
  %44 = load i8, i8* %43, align 1, !tbaa !9
  %45 = sub nsw i64 %30, %41
  %46 = getelementptr inbounds [100 x i8], [100 x i8]* %4, i64 0, i64 %45
  %47 = load i8, i8* %46, align 1, !tbaa !9
  %48 = icmp slt i8 %44, %47
  br i1 %48, label %51, label %49

49:                                               ; preds = %40
  %50 = add i8 %44, 48
  br label %57

51:                                               ; preds = %40
  %52 = add i8 %44, 58
  %53 = add nsw i64 %42, -1
  %54 = getelementptr inbounds [100 x i8], [100 x i8]* %2, i64 0, i64 %53
  %55 = load i8, i8* %54, align 1, !tbaa !9
  %56 = add i8 %55, -1
  store i8 %56, i8* %54, align 1, !tbaa !9
  br label %57

57:                                               ; preds = %49, %51
  %58 = phi i8 [ %52, %51 ], [ %50, %49 ]
  %59 = sub i8 %58, %47
  %60 = getelementptr inbounds [100 x i8], [100 x i8]* %6, i64 0, i64 %42
  store i8 %59, i8* %60, align 1
  %61 = add nuw nsw i64 %41, 1
  %62 = icmp eq i64 %61, %32
  br i1 %62, label %33, label %40, !llvm.loop !10

63:                                               ; preds = %37, %33
  %64 = icmp sgt i32 %22, 0
  br i1 %64, label %65, label %75

65:                                               ; preds = %63
  %66 = and i64 %21, 4294967295
  br label %67

67:                                               ; preds = %65, %67
  %68 = phi i64 [ 0, %65 ], [ %73, %67 ]
  %69 = getelementptr inbounds [100 x i8], [100 x i8]* %6, i64 0, i64 %68
  %70 = load i8, i8* %69, align 1, !tbaa !9
  %71 = sext i8 %70 to i32
  %72 = call i32 @putchar(i32 %71)
  %73 = add nuw nsw i64 %68, 1
  %74 = icmp eq i64 %73, %66
  br i1 %74, label %75, label %67, !llvm.loop !12

75:                                               ; preds = %67, %63
  %76 = call i32 @putchar(i32 10)
  %77 = add nuw nsw i32 %17, 1
  %78 = load i32, i32* %1, align 4, !tbaa !5
  %79 = icmp slt i32 %17, %78
  br i1 %79, label %16, label %80, !llvm.loop !13

80:                                               ; preds = %75, %0
  call void @llvm.lifetime.end.p0i8(i64 100, i8* nonnull %13) #8
  call void @llvm.lifetime.end.p0i8(i64 100, i8* nonnull %12) #8
  call void @llvm.lifetime.end.p0i8(i64 100, i8* nonnull %11) #8
  call void @llvm.lifetime.end.p0i8(i64 4, i8* nonnull %8) #8
  ret i32 0
}

; Function Attrs: argmemonly mustprogress nofree nosync nounwind willreturn
declare void @llvm.lifetime.start.p0i8(i64 immarg, i8* nocapture) #1

; Function Attrs: nofree nounwind
declare noundef i32 @__isoc99_scanf(i8* nocapture noundef readonly, ...) local_unnamed_addr #2

declare i32 @gets(...) local_unnamed_addr #3

; Function Attrs: argmemonly mustprogress nofree nounwind readonly willreturn
declare i64 @strlen(i8* nocapture) local_unnamed_addr #4

; Function Attrs: argmemonly mustprogress nofree nosync nounwind willreturn
declare void @llvm.lifetime.end.p0i8(i64 immarg, i8* nocapture) #1

; Function Attrs: nofree nounwind
declare noundef i32 @putchar(i32 noundef) local_unnamed_addr #5

; Function Attrs: argmemonly nofree nounwind willreturn writeonly
declare void @llvm.memset.p0i8.i64(i8* nocapture writeonly, i8, i64, i1 immarg) #6

; Function Attrs: argmemonly nofree nounwind willreturn
declare void @llvm.memcpy.p0i8.p0i8.i64(i8* noalias nocapture writeonly, i8* noalias nocapture readonly, i64, i1 immarg) #7


!llvm.module.flags = !{!0, !1, !2, !3}
!llvm.ident = !{!4}

!0 = !{i32 1, !"wchar_size", i32 4}
!1 = !{i32 7, !"PIC Level", i32 2}
!2 = !{i32 7, !"PIE Level", i32 2}
!3 = !{i32 7, !"uwtable", i32 1}
!4 = !{!"clang version 13.0.0"}
!5 = !{!6, !6, i64 0}
!6 = !{!"int", !7, i64 0}
!7 = !{!"omnipotent char", !8, i64 0}
!8 = !{!"Simple C/C++ TBAA"}
!9 = !{!7, !7, i64 0}
!10 = distinct !{!10, !11}
!11 = !{!"llvm.loop.mustprogress"}
!12 = distinct !{!12, !11}
!13 = distinct !{!13, !11}
